target datalayout = "e-m:e-p270:32:32-p271:32:32-p272:64:64-i64:64-i128:128-f80:128-n8:16:32:64-S128"
target triple = "x86_64-pc-linux-gnu"

%struct.rlimit = type { i64, i64 }

@.str.73 = private unnamed_addr constant [10 x i8] c"setrlimit\00", align 1

; Function Attrs: inlinehint nounwind sspstrong willreturn memory(none) uwtable
define internal zeroext i1 @RB_NIL_P(i64 noundef %0) #4 {
  %2 = alloca i64, align 8
  store i64 %0, ptr %2, align 8, !tbaa !35
  %3 = load i64, ptr %2, align 8, !tbaa !35
  %4 = icmp eq i64 %3, 4
  ret i1 %4
}

; Function Attrs: inlinehint nounwind sspstrong uwtable
define internal i32 @rb_check_arity(i32 noundef %0, i32 noundef %1, i32 noundef %2) #1 {
  %4 = alloca i32, align 4
  %5 = alloca i32, align 4
  %6 = alloca i32, align 4
  store i32 %0, ptr %4, align 4, !tbaa !34
  store i32 %1, ptr %5, align 4, !tbaa !34
  store i32 %2, ptr %6, align 4, !tbaa !34
  %7 = load i32, ptr %4, align 4, !tbaa !34
  %8 = load i32, ptr %5, align 4, !tbaa !34
  %9 = icmp slt i32 %7, %8
  br i1 %9, label %17, label %10

10:                                               ; preds = %3
  %11 = load i32, ptr %6, align 4, !tbaa !34
  %12 = icmp ne i32 %11, -1
  br i1 %12, label %13, label %21

13:                                               ; preds = %10
  %14 = load i32, ptr %4, align 4, !tbaa !34
  %15 = load i32, ptr %6, align 4, !tbaa !34
  %16 = icmp sgt i32 %14, %15
  br i1 %16, label %17, label %21

17:                                               ; preds = %13, %3
  %18 = load i32, ptr %4, align 4, !tbaa !34
  %19 = load i32, ptr %5, align 4, !tbaa !34
  %20 = load i32, ptr %6, align 4, !tbaa !34
  call void @rb_error_arity(i32 noundef %18, i32 noundef %19, i32 noundef %20) #30
  unreachable

21:                                               ; preds = %13, %10
  %22 = load i32, ptr %4, align 4, !tbaa !34
  ret i32 %22
}

; Function Attrs: nounwind sspstrong uwtable
define internal i64 @proc_setrlimit(i32 noundef %0, ptr noundef %1, i64 noundef %2) #0 {
  %4 = alloca i32, align 4
  %5 = alloca ptr, align 8
  %6 = alloca i64, align 8
  %7 = alloca i64, align 8
  %8 = alloca i64, align 8
  %9 = alloca i64, align 8
  %10 = alloca %struct.rlimit, align 8
  %11 = alloca i32, align 4
  store i32 %0, ptr %4, align 4, !tbaa !34
  store ptr %1, ptr %5, align 8, !tbaa !70
  store i64 %2, ptr %6, align 8, !tbaa !35
  call void @llvm.lifetime.start.p0(i64 8, ptr %7) #27
  call void @llvm.lifetime.start.p0(i64 8, ptr %8) #27
  call void @llvm.lifetime.start.p0(i64 8, ptr %9) #27
  call void @llvm.lifetime.start.p0(i64 16, ptr %10) #27
  %12 = load i32, ptr %4, align 4, !tbaa !34
  %13 = call i32 @rb_check_arity(i32 noundef %12, i32 noundef 2, i32 noundef 3)
  %14 = load ptr, ptr %5, align 8, !tbaa !70
  %15 = getelementptr i64, ptr %14, i64 0
  %16 = load i64, ptr %15, align 8, !tbaa !35
  store i64 %16, ptr %7, align 8, !tbaa !35
  %17 = load ptr, ptr %5, align 8, !tbaa !70
  %18 = getelementptr i64, ptr %17, i64 1
  %19 = load i64, ptr %18, align 8, !tbaa !35
  store i64 %19, ptr %8, align 8, !tbaa !35
  %20 = load i32, ptr %4, align 4, !tbaa !34
  %21 = icmp slt i32 %20, 3
  br i1 %21, label %27, label %22

22:                                               ; preds = %3
  %23 = load ptr, ptr %5, align 8, !tbaa !70
  %24 = getelementptr i64, ptr %23, i64 2
  %25 = load i64, ptr %24, align 8, !tbaa !35
  store i64 %25, ptr %9, align 8, !tbaa !35
  %26 = call zeroext i1 @RB_NIL_P(i64 noundef %25) #28
  br i1 %26, label %27, label %29

27:                                               ; preds = %22, %3
  %28 = load i64, ptr %8, align 8, !tbaa !35
  store i64 %28, ptr %9, align 8, !tbaa !35
  br label %29

29:                                               ; preds = %27, %22
  %30 = load i64, ptr %8, align 8, !tbaa !35
  %31 = call i64 @rlimit_resource_value(i64 noundef %30)
  %32 = getelementptr inbounds nuw %struct.rlimit, ptr %10, i32 0, i32 0
  store i64 %31, ptr %32, align 8, !tbaa !119
  %33 = load i64, ptr %9, align 8, !tbaa !35
  %34 = call i64 @rlimit_resource_value(i64 noundef %33)
  %35 = getelementptr inbounds nuw %struct.rlimit, ptr %10, i32 0, i32 1
  store i64 %34, ptr %35, align 8, !tbaa !121
  %36 = load i64, ptr %7, align 8, !tbaa !35
  %37 = call i32 @rlimit_resource_type(i64 noundef %36)
  %38 = call i32 @setrlimit(i32 noundef %37, ptr noundef %10) #27
  %39 = icmp slt i32 %38, 0
  br i1 %39, label %40, label %47

40:                                               ; preds = %29
  br label %41

41:                                               ; preds = %40
  call void @llvm.lifetime.start.p0(i64 4, ptr %11) #27
  %42 = call ptr @rb_errno_ptr()
  %43 = load i32, ptr %42, align 4, !tbaa !34
  store i32 %43, ptr %11, align 4, !tbaa !34
  %44 = load i32, ptr %11, align 4, !tbaa !34
  call void @rb_syserr_fail(i32 noundef %44, ptr noundef @.str.73) #30
  unreachable

45:                                               ; No predecessors!
  br label %46

46:                                               ; preds = %45
  br label %47

47:                                               ; preds = %46, %29
  call void @llvm.lifetime.end.p0(i64 16, ptr %10) #27
  call void @llvm.lifetime.end.p0(i64 8, ptr %9) #27
  call void @llvm.lifetime.end.p0(i64 8, ptr %8) #27
  call void @llvm.lifetime.end.p0(i64 8, ptr %7) #27
  ret i64 4
}