; Function Attrs: nounwind sspstrong uwtable
define internal noundef i64 @proc_setrlimit(i32 noundef %0, ptr noundef readonly captures(none) %1, i64 %2) #1 {
  %4 = alloca %struct.rlimit, align 8
  call void @llvm.lifetime.start.p0(i64 16, ptr nonnull %4) #27
  %5 = add i32 %0, -4
  %or.cond = icmp ult i32 %5, -2
  br i1 %or.cond, label %6, label %rb_check_arity.exit

6:                                                ; preds = %3
  tail call void @rb_error_arity(i32 noundef %0, i32 noundef 2, i32 noundef 3) #29
  unreachable

rb_check_arity.exit:                              ; preds = %3
  %7 = load i64, ptr %1, align 8, !tbaa !43
  %8 = getelementptr i8, ptr %1, i64 8
  %9 = load i64, ptr %8, align 8, !tbaa !43
  %10 = icmp samesign ult i32 %0, 3
  br i1 %10, label %15, label %11

11:                                               ; preds = %rb_check_arity.exit
  %12 = getelementptr i8, ptr %1, i64 16
  %13 = load i64, ptr %12, align 8, !tbaa !43
  %14 = icmp eq i64 %13, 4
  br i1 %14, label %15, label %16

15:                                               ; preds = %11, %rb_check_arity.exit
  br label %16

16:                                               ; preds = %15, %11
  %.0 = phi i64 [ %9, %15 ], [ %13, %11 ]
  %17 = tail call fastcc i64 @rlimit_resource_value(i64 noundef %9)
  store i64 %17, ptr %4, align 8, !tbaa !173
  %18 = tail call fastcc i64 @rlimit_resource_value(i64 noundef %.0)
  %19 = getelementptr inbounds nuw i8, ptr %4, i64 8
  store i64 %18, ptr %19, align 8, !tbaa !175
  %20 = tail call fastcc i32 @rlimit_resource_type(i64 noundef %7)
  %21 = call i32 @setrlimit(i32 noundef %20, ptr noundef nonnull %4) #27
  %22 = icmp slt i32 %21, 0
  br i1 %22, label %23, label %26

23:                                               ; preds = %16
  %24 = call ptr @rb_errno_ptr() #27
  %25 = load i32, ptr %24, align 4, !tbaa !60
  call void @rb_syserr_fail(i32 noundef %25, ptr noundef nonnull @.str.73) #29
  unreachable

26:                                               ; preds = %16
  call void @llvm.lifetime.end.p0(i64 16, ptr nonnull %4) #27
  ret i64 4
}